target datalayout = "e-m:e-p270:32:32-p271:32:32-p272:64:64-i64:64-i128:128-f80:128-n8:16:32:64-S128"
target triple = "x86_64-pc-linux-gnu"

; Function Attrs: nounwind uwtable
define dso_local zeroext i1 @to_json_is_immutable(i32 noundef %0) #0 {
  %2 = alloca i1, align 1
  %3 = alloca i32, align 4
  %4 = alloca i32, align 4
  %5 = alloca i32, align 4
  %6 = alloca i32, align 4
  store i32 %0, ptr %3, align 4
  call void @llvm.lifetime.start.p0(i64 4, ptr %4) #14
  call void @llvm.lifetime.start.p0(i64 4, ptr %5) #14
  %7 = load i32, ptr %3, align 4
  call void @json_categorize_type(i32 noundef %7, i1 noundef zeroext false, ptr noundef %4, ptr noundef %5)
  %8 = load i32, ptr %4, align 4
  switch i32 %8, label %18 [
    i32 1, label %9
    i32 6, label %9
    i32 7, label %9
    i32 0, label %9
    i32 3, label %10
    i32 4, label %10
    i32 5, label %10
    i32 8, label %11
    i32 9, label %12
    i32 2, label %13
    i32 10, label %13
    i32 11, label %13
  ]

9:                                                ; preds = %1, %1, %1, %1
  store i1 true, ptr %2, align 1
  store i32 1, ptr %6, align 4
  br label %19

10:                                               ; preds = %1, %1, %1
  store i1 false, ptr %2, align 1
  store i32 1, ptr %6, align 4
  br label %19

11:                                               ; preds = %1
  store i1 false, ptr %2, align 1
  store i32 1, ptr %6, align 4
  br label %19

12:                                               ; preds = %1
  store i1 false, ptr %2, align 1
  store i32 1, ptr %6, align 4
  br label %19

13:                                               ; preds = %1, %1, %1
  %14 = load i32, ptr %5, align 4
  %15 = call signext i8 @func_volatile(i32 noundef %14)
  %16 = sext i8 %15 to i32
  %17 = icmp eq i32 %16, 105
  store i1 %17, ptr %2, align 1
  store i32 1, ptr %6, align 4
  br label %19

18:                                               ; preds = %1
  store i1 false, ptr %2, align 1
  store i32 1, ptr %6, align 4
  br label %19

19:                                               ; preds = %18, %13, %12, %11, %10, %9
  call void @llvm.lifetime.end.p0(i64 4, ptr %5) #14
  call void @llvm.lifetime.end.p0(i64 4, ptr %4) #14
  %20 = load i1, ptr %2, align 1
  ret i1 %20
}